target datalayout = "e-m:e-p270:32:32-p271:32:32-p272:64:64-i64:64-i128:128-f80:128-n8:16:32:64-S128"
target triple = "x86_64-pc-linux-gnu"

; Function Attrs: nounwind uwtable
define dso_local i32 @ll2string(ptr noundef %0, i64 noundef %1, i64 noundef %2) #0 {
  %4 = alloca i32, align 4
  %5 = alloca ptr, align 8
  %6 = alloca i64, align 8
  %7 = alloca i64, align 8
  %8 = alloca i64, align 8
  %9 = alloca i32, align 4
  %10 = alloca i32, align 4
  %11 = alloca i32, align 4
  store ptr %0, ptr %5, align 8, !tbaa !5
  store i64 %1, ptr %6, align 8, !tbaa !29
  store i64 %2, ptr %7, align 8, !tbaa !31
  call void @llvm.lifetime.start.p0(i64 8, ptr %8) #13
  call void @llvm.lifetime.start.p0(i64 4, ptr %9) #13
  store i32 0, ptr %9, align 4, !tbaa !10
  %12 = load i64, ptr %7, align 8, !tbaa !31
  %13 = icmp slt i64 %12, 0
  br i1 %13, label %14, label %32

14:                                               ; preds = %3
  %15 = load i64, ptr %7, align 8, !tbaa !31
  %16 = icmp ne i64 %15, -9223372036854775808
  br i1 %16, label %17, label %20

17:                                               ; preds = %14
  %18 = load i64, ptr %7, align 8, !tbaa !31
  %19 = sub nsw i64 0, %18
  store i64 %19, ptr %8, align 8, !tbaa !31
  br label %21

20:                                               ; preds = %14
  store i64 -9223372036854775808, ptr %8, align 8, !tbaa !31
  br label %21

21:                                               ; preds = %20, %17
  %22 = load i64, ptr %6, align 8, !tbaa !29
  %23 = icmp ult i64 %22, 2
  br i1 %23, label %24, label %25

24:                                               ; preds = %21
  br label %46

25:                                               ; preds = %21
  store i32 1, ptr %9, align 4, !tbaa !10
  %26 = load ptr, ptr %5, align 8, !tbaa !5
  %27 = getelementptr inbounds i8, ptr %26, i64 0
  store i8 45, ptr %27, align 1, !tbaa !12
  %28 = load ptr, ptr %5, align 8, !tbaa !5
  %29 = getelementptr inbounds nuw i8, ptr %28, i32 1
  store ptr %29, ptr %5, align 8, !tbaa !5
  %30 = load i64, ptr %6, align 8, !tbaa !29
  %31 = add i64 %30, -1
  store i64 %31, ptr %6, align 8, !tbaa !29
  br label %34

32:                                               ; preds = %3
  %33 = load i64, ptr %7, align 8, !tbaa !31
  store i64 %33, ptr %8, align 8, !tbaa !31
  br label %34

34:                                               ; preds = %32, %25
  %35 = load ptr, ptr %5, align 8, !tbaa !5
  %36 = load i64, ptr %6, align 8, !tbaa !29
  %37 = load i64, ptr %8, align 8, !tbaa !31
  %38 = call i32 @ull2string(ptr noundef %35, i64 noundef %36, i64 noundef %37)
  store i32 %38, ptr %10, align 4, !tbaa !10
  %39 = load i32, ptr %10, align 4, !tbaa !10
  %40 = icmp eq i32 %39, 0
  br i1 %40, label %41, label %42

41:                                               ; preds = %34
  store i32 0, ptr %4, align 4
  store i32 1, ptr %11, align 4
  br label %53

42:                                               ; preds = %34
  %43 = load i32, ptr %10, align 4, !tbaa !10
  %44 = load i32, ptr %9, align 4, !tbaa !10
  %45 = add nsw i32 %43, %44
  store i32 %45, ptr %4, align 4
  store i32 1, ptr %11, align 4
  br label %53

46:                                               ; preds = %24
  %47 = load i64, ptr %6, align 8, !tbaa !29
  %48 = icmp ugt i64 %47, 0
  br i1 %48, label %49, label %52

49:                                               ; preds = %46
  %50 = load ptr, ptr %5, align 8, !tbaa !5
  %51 = getelementptr inbounds i8, ptr %50, i64 0
  store i8 0, ptr %51, align 1, !tbaa !12
  br label %52

52:                                               ; preds = %49, %46
  store i32 0, ptr %4, align 4
  store i32 1, ptr %11, align 4
  br label %53

53:                                               ; preds = %52, %42, %41
  call void @llvm.lifetime.end.p0(i64 4, ptr %9) #13
  call void @llvm.lifetime.end.p0(i64 8, ptr %8) #13
  %54 = load i32, ptr %4, align 4
  ret i32 %54
}