; Function Attrs: nofree norecurse nosync nounwind memory(argmem: write) uwtable
define dso_local i32 @ll2string(ptr noundef writeonly captures(none) %0, i64 noundef %1, i64 noundef %2) local_unnamed_addr #14 {
  %4 = icmp slt i64 %2, 0
  br i1 %4, label %5, label %11

5:                                                ; preds = %3
  %6 = icmp ult i64 %1, 2
  br i1 %6, label %16, label %7

7:                                                ; preds = %5
  %8 = sub i64 0, %2
  store i8 45, ptr %0, align 1, !tbaa !9
  %9 = getelementptr inbounds nuw i8, ptr %0, i64 1
  %10 = add i64 %1, -1
  br label %11

11:                                               ; preds = %3, %7
  %.019 = phi i64 [ %10, %7 ], [ %1, %3 ]
  %.018 = phi ptr [ %9, %7 ], [ %0, %3 ]
  %.1 = phi i64 [ %8, %7 ], [ %2, %3 ]
  %.016 = phi i32 [ 1, %7 ], [ 0, %3 ]
  %12 = tail call i32 @ull2string(ptr noundef %.018, i64 noundef %.019, i64 noundef %.1)
  %13 = icmp eq i32 %12, 0
  br i1 %13, label %19, label %14

14:                                               ; preds = %11
  %15 = add nsw i32 %12, %.016
  br label %19

16:                                               ; preds = %5
  %17 = icmp eq i64 %1, 1
  br i1 %17, label %18, label %19

18:                                               ; preds = %16
  store i8 0, ptr %0, align 1, !tbaa !9
  br label %19

19:                                               ; preds = %16, %18, %11, %14
  %.0 = phi i32 [ %15, %14 ], [ 0, %11 ], [ 0, %18 ], [ 0, %16 ]
  ret i32 %.0
}